; Function Attrs: mustprogress nofree norecurse nosync nounwind willreturn memory(argmem: readwrite) uwtable
define void @_ZN32pxrInternal_v0_24__pxrReserved__10GfMatrix2fC2ERKNS_10GfMatrix2dE(ptr noundef nonnull writeonly align 4 captures(none) dereferenceable(16) initializes((0, 16)) %0, ptr noundef nonnull readonly align 8 captures(none) dereferenceable(32) %1) unnamed_addr #2 align 2 {
  %3 = load double, ptr %1, align 8
  %4 = fptrunc double %3 to float
  %5 = getelementptr inbounds nuw i8, ptr %1, i64 8
  %6 = load double, ptr %5, align 8
  %7 = fptrunc double %6 to float
  %8 = getelementptr inbounds nuw i8, ptr %1, i64 16
  %9 = load double, ptr %8, align 8
  %10 = fptrunc double %9 to float
  %11 = getelementptr inbounds nuw i8, ptr %1, i64 24
  %12 = load double, ptr %11, align 8
  %13 = fptrunc double %12 to float
  store float %4, ptr %0, align 4
  %14 = getelementptr inbounds nuw i8, ptr %0, i64 4
  store float %7, ptr %14, align 4
  %15 = getelementptr inbounds nuw i8, ptr %0, i64 8
  store float %10, ptr %15, align 4
  %16 = getelementptr inbounds nuw i8, ptr %0, i64 12
  store float %13, ptr %16, align 4
  ret void
}